; Function Attrs: null_pointer_is_valid sspstrong uwtable
define ptr @unsigned_time_secs_to_str(ptr noundef %0, i32 noundef %1) local_unnamed_addr #0 {
  %3 = icmp eq i32 %1, 0
  br i1 %3, label %4, label %6

4:                                                ; preds = %2
  %5 = tail call noalias ptr @wmem_strdup(ptr noundef %0, ptr noundef nonnull @.str.8)
  br label %10

6:                                                ; preds = %2
  %7 = tail call noalias ptr @wmem_strbuf_new_sized(ptr noundef %0, i64 noundef 57)
  %8 = zext i32 %1 to i64
  tail call fastcc void @unsigned_time_secs_to_str_buf(i64 noundef %8, i32 noundef 0, i1 noundef zeroext false, ptr noundef %7)
  %9 = tail call ptr @wmem_strbuf_finalize(ptr noundef %7)
  br label %10

10:                                               ; preds = %6, %4
  %.0 = phi ptr [ %5, %4 ], [ %9, %6 ]
  ret ptr %.0
}